Certificate:
    Data:
        Version: 3 (0x2)
        Serial Number: 2 (0x2)
    Signature Algorithm: sha1WithRSAEncryption
        Issuer: C=US, ST=CA, L=PaloAlto, O=Swarm, OU=Flight, CN=server/name=Alan/emailAddress=Alan@swarm-technologies.com
        Validity
            Not Before: Aug  8 20:00:18 2017 GMT
            Not After : Aug  6 20:00:18 2027 GMT
        Subject: C=US, ST=GA, L=FloweryBranch, O=Swarm, OU=Flight, CN=client1/name=Chris/emailAddress=jcwren@swarm-technologies.com
        Subject Public Key Info:
            Public Key Algorithm: rsaEncryption
                Public-Key: (1024 bit)
                Modulus:
                    00:b4:a3:67:49:b5:74:69:09:8e:56:cf:51:5d:76:
                    5f:eb:c3:3e:38:7e:f6:e0:35:09:a1:b3:30:c1:a0:
                    e6:e5:2f:94:9c:bc:96:38:2f:19:e9:4d:a4:0c:d7:
                    9e:e9:8d:90:6b:f2:0a:a8:10:56:37:31:29:a4:b8:
                    dd:26:87:0f:0f:a8:6d:7c:b9:cb:df:fd:ca:8e:43:
                    bb:82:af:01:41:28:37:72:51:37:16:5f:ee:83:00:
                    96:b4:c3:f8:fc:26:ca:7f:18:ea:52:00:93:35:50:
                    de:9a:62:1f:17:20:55:91:30:59:65:eb:0e:04:3d:
                    de:46:41:ea:74:06:e4:1e:d3
                Exponent: 65537 (0x10001)
        X509v3 extensions:
            X509v3 Basic Constraints: 
                CA:FALSE
            Netscape Comment: 
                Easy-RSA Generated Certificate
            X509v3 Subject Key Identifier: 
                E3:C2:0E:56:CB:73:48:9B:2A:1E:9C:2F:1A:4D:4D:AD:5E:80:98:A7
            X509v3 Authority Key Identifier: 
                keyid:D3:CB:D5:B1:72:21:C5:03:EA:C6:72:6B:3E:86:4D:2C:19:E1:3F:8A
                DirName:/C=US/ST=CA/L=PaloAlto/O=Swarm/OU=Flight/CN=server/name=Alan/emailAddress=Alan@swarm-technologies.com
                serial:CA:6F:BC:69:4E:2C:59:10

            X509v3 Extended Key Usage: 
                TLS Web Client Authentication
            X509v3 Key Usage: 
                Digital Signature
    Signature Algorithm: sha1WithRSAEncryption
         89:4a:a0:8e:89:6d:97:89:ad:09:e2:8a:44:17:ed:c8:0c:45:
         6f:86:68:d1:64:28:96:eb:7e:6a:47:79:ff:24:5d:1a:04:62:
         2e:f2:2f:97:ff:65:55:41:66:09:12:f3:09:c2:ef:19:08:36:
         6a:46:5b:24:a2:c2:70:ca:41:a1:c0:b8:fe:6f:62:69:81:ec:
         62:11:e0:e1:12:c3:02:1e:b4:a5:58:d1:de:ad:bb:b8:6d:45:
         bb:f7:fe:7d:8b:de:97:01:4a:88:29:e7:da:8f:2b:93:89:bf:
         a2:47:d9:a7:33:78:de:6f:f7:d6:3f:b2:28:5c:a1:b3:a9:cb:
         d3:b4
-----BEGIN CERTIFICATE-----
MIIECDCCA3GgAwIBAgIBAjANBgkqhkiG9w0BAQUFADCBmjELMAkGA1UEBhMCVVMx
CzAJBgNVBAgTAkNBMREwDwYDVQQHEwhQYWxvQWx0bzEOMAwGA1UEChMFU3dhcm0x
DzANBgNVBAsTBkZsaWdodDEPMA0GA1UEAxMGc2VydmVyMQ0wCwYDVQQpEwRBbGFu
MSowKAYJKoZIhvcNAQkBFhtBbGFuQHN3YXJtLXRlY2hub2xvZ2llcy5jb20wHhcN
MTcwODA4MjAwMDE4WhcNMjcwODA2MjAwMDE4WjCBozELMAkGA1UEBhMCVVMxCzAJ
BgNVBAgTAkdBMRYwFAYDVQQHEw1GbG93ZXJ5QnJhbmNoMQ4wDAYDVQQKEwVTd2Fy
bTEPMA0GA1UECxMGRmxpZ2h0MRAwDgYDVQQDEwdjbGllbnQxMQ4wDAYDVQQpEwVD
aHJpczEsMCoGCSqGSIb3DQEJARYdamN3cmVuQHN3YXJtLXRlY2hub2xvZ2llcy5j
b20wgZ8wDQYJKoZIhvcNAQEBBQADgY0AMIGJAoGBALSjZ0m1dGkJjlbPUV12X+vD
Pjh+9uA1CaGzMMGg5uUvlJy8ljgvGelNpAzXnumNkGvyCqgQVjcxKaS43SaHDw+o
bXy5y9/9yo5Du4KvAUEoN3JRNxZf7oMAlrTD+Pwmyn8Y6lIAkzVQ3ppiHxcgVZEw
WWXrDgQ93kZB6nQG5B7TAgMBAAGjggFRMIIBTTAJBgNVHRMEAjAAMC0GCWCGSAGG
+EIBDQQgFh5FYXN5LVJTQSBHZW5lcmF0ZWQgQ2VydGlmaWNhdGUwHQYDVR0OBBYE
FOPCDlbLc0ibKh6cLxpNTa1egJinMIHPBgNVHSMEgccwgcSAFNPL1bFyIcUD6sZy
az6GTSwZ4T+KoYGgpIGdMIGaMQswCQYDVQQGEwJVUzELMAkGA1UECBMCQ0ExETAP
BgNVBAcTCFBhbG9BbHRvMQ4wDAYDVQQKEwVTd2FybTEPMA0GA1UECxMGRmxpZ2h0
MQ8wDQYDVQQDEwZzZXJ2ZXIxDTALBgNVBCkTBEFsYW4xKjAoBgkqhkiG9w0BCQEW
G0FsYW5Ac3dhcm0tdGVjaG5vbG9naWVzLmNvbYIJAMpvvGlOLFkQMBMGA1UdJQQM
MAoGCCsGAQUFBwMCMAsGA1UdDwQEAwIHgDANBgkqhkiG9w0BAQUFAAOBgQCJSqCO
iW2Xia0J4opEF+3IDEVvhmjRZCiW635qR3n/JF0aBGIu8i+X/2VVQWYJEvMJwu8Z
CDZqRlskosJwykGhwLj+b2JpgexiEeDhEsMCHrSlWNHerbu4bUW79/59i96XAUqI
KefajyuTib+iR9mnM3jeb/fWP7IoXKGzqcvTtA==
-----END CERTIFICATE-----
